; Function Attrs: mustprogress nofree norecurse nosync nounwind willreturn memory(read, inaccessiblemem: none) uwtable
define { ptr, ptr } @_ZNK4pkpy10SourceData9_get_lineEi(ptr nocapture noundef nonnull readonly align 8 dereferenceable(120) %0, i32 noundef %1) local_unnamed_addr #5 align 2 {
  %3 = getelementptr inbounds i8, ptr %0, i64 88
  %4 = load i8, ptr %3, align 8
  %5 = trunc i8 %4 to i1
  %6 = icmp eq i32 %1, -1
  %or.cond = or i1 %6, %5
  br i1 %or.cond, label %.critedge, label %7

7:                                                ; preds = %2
  %8 = tail call i32 @llvm.smax.i32(i32 %1, i32 1)
  %9 = getelementptr inbounds i8, ptr %0, i64 80
  %10 = load ptr, ptr %9, align 8
  %11 = zext nneg i32 %8 to i64
  %12 = getelementptr ptr, ptr %10, i64 %11
  %13 = getelementptr i8, ptr %12, i64 -8
  %14 = load ptr, ptr %13, align 8
  %15 = ptrtoint ptr %14 to i64
  %scevgep = getelementptr i8, ptr %14, i64 300
  br label %16

16:                                               ; preds = %22, %7
  %storemerge = phi ptr [ %14, %7 ], [ %23, %22 ]
  %17 = load i8, ptr %storemerge, align 1
  switch i8 %17, label %18 [
    i8 10, label %.critedge
    i8 0, label %.critedge
  ]

18:                                               ; preds = %16
  %19 = ptrtoint ptr %storemerge to i64
  %20 = sub i64 %19, %15
  %21 = icmp slt i64 %20, 300
  br i1 %21, label %22, label %.critedge

22:                                               ; preds = %18
  %23 = getelementptr inbounds i8, ptr %storemerge, i64 1
  br label %16, !llvm.loop !7

.critedge:                                        ; preds = %18, %16, %16, %2
  %.sroa.3.0 = phi ptr [ null, %2 ], [ %scevgep, %18 ], [ %storemerge, %16 ], [ %storemerge, %16 ]
  %.sroa.0.0 = phi ptr [ null, %2 ], [ %14, %16 ], [ %14, %16 ], [ %14, %18 ]
  %.fca.0.insert = insertvalue { ptr, ptr } poison, ptr %.sroa.0.0, 0
  %.fca.1.insert = insertvalue { ptr, ptr } %.fca.0.insert, ptr %.sroa.3.0, 1
  ret { ptr, ptr } %.fca.1.insert
}